; Function Attrs: nounwind uwtable
define i32 @H5T_get_sign(ptr nocapture noundef readonly %0) local_unnamed_addr #0 {
  br label %2

2:                                                ; preds = %2, %1
  %.05 = phi ptr [ %0, %1 ], [ %6, %2 ]
  %3 = getelementptr inbounds i8, ptr %.05, i64 40
  %4 = load ptr, ptr %3, align 8
  %5 = getelementptr inbounds i8, ptr %4, i64 32
  %6 = load ptr, ptr %5, align 8
  %.not = icmp eq ptr %6, null
  br i1 %.not, label %7, label %2

7:                                                ; preds = %2
  %8 = getelementptr inbounds i8, ptr %4, i64 12
  %9 = load i32, ptr %8, align 4
  %.not7 = icmp eq i32 %9, 0
  br i1 %.not7, label %14, label %10

10:                                               ; preds = %7
  %11 = load i64, ptr @H5E_DATATYPE_g, align 8
  %12 = load i64, ptr @H5E_CANTINIT_g, align 8
  %13 = tail call i32 (ptr, ptr, i32, i64, i64, ptr, ...) @H5E_printf_stack(ptr noundef nonnull @.str, ptr noundef nonnull @__func__.H5T_get_sign, i32 noundef 81, i64 noundef %11, i64 noundef %12, ptr noundef nonnull @.str.4) #2
  br label %17

14:                                               ; preds = %7
  %15 = getelementptr inbounds i8, ptr %4, i64 80
  %16 = load i32, ptr %15, align 8
  br label %17

17:                                               ; preds = %14, %10
  %.0 = phi i32 [ -1, %10 ], [ %16, %14 ]
  ret i32 %.0
}